; Function Attrs: mustprogress nofree norecurse nosync nounwind willreturn memory(argmem: write) uwtable
define hidden void @_ZN17substitution_treeC2ER11ast_manager(ptr noundef nonnull writeonly align 8 captures(none) dereferenceable(136) initializes((0, 20), (24, 36), (40, 48), (56, 96), (104, 112), (128, 136)) %0, ptr noundef nonnull align 8 dereferenceable(976) %1) unnamed_addr #10 align 2 personality ptr @__gxx_personality_v0 {
  store ptr %1, ptr %0, align 8, !tbaa !90
  %3 = getelementptr inbounds nuw i8, ptr %0, i64 8
  store ptr null, ptr %3, align 8, !tbaa !96
  %4 = getelementptr inbounds nuw i8, ptr %0, i64 16
  store i32 0, ptr %4, align 8, !tbaa !32
  %5 = getelementptr inbounds nuw i8, ptr %0, i64 24
  store ptr null, ptr %5, align 8, !tbaa !39
  %6 = getelementptr inbounds nuw i8, ptr %0, i64 32
  store i32 0, ptr %6, align 8, !tbaa !105
  %7 = getelementptr inbounds nuw i8, ptr %0, i64 40
  store ptr null, ptr %7, align 8, !tbaa !86
  %8 = getelementptr inbounds nuw i8, ptr %0, i64 56
  %9 = getelementptr inbounds nuw i8, ptr %0, i64 104
  store ptr null, ptr %9, align 8, !tbaa !96
  %10 = getelementptr inbounds nuw i8, ptr %0, i64 128
  store ptr null, ptr %10, align 8, !tbaa !155
  tail call void @llvm.memset.p0.i64(ptr noundef nonnull align 8 dereferenceable(40) %8, i8 0, i64 40, i1 false)
  ret void
}